target datalayout = "e-m:e-p270:32:32-p271:32:32-p272:64:64-i64:64-i128:128-f80:128-n8:16:32:64-S128"
target triple = "x86_64-unknown-linux-gnu"

%"struct.std::pair.7" = type { ptr, i64 }

; Function Attrs: mustprogress nounwind uwtable
define linkonce_odr hidden void @_ZNSt4pairIPKcmEC2IDniTnNSt9enable_ifIXaaclsr5_PCCPE22_MoveConstructiblePairIT_T0_EEclsr5_PCCPE30_ImplicitlyMoveConvertiblePairIS5_S6_EEEbE4typeELb1EEEOS5_OS6_(ptr noundef nonnull align 8 dereferenceable(16) %this, ptr noundef nonnull align 8 dereferenceable(8) %__x, ptr noundef nonnull align 4 dereferenceable(4) %__y) unnamed_addr #5 comdat align 2 {
entry:
  %this.addr = alloca ptr, align 8
  %__x.addr = alloca ptr, align 8
  %__y.addr = alloca ptr, align 8
  store ptr %this, ptr %this.addr, align 8
  store ptr %__x, ptr %__x.addr, align 8
  store ptr %__y, ptr %__y.addr, align 8
  %this1 = load ptr, ptr %this.addr, align 8
  %first = getelementptr inbounds %"struct.std::pair.7", ptr %this1, i32 0, i32 0
  store ptr null, ptr %first, align 8
  %second = getelementptr inbounds %"struct.std::pair.7", ptr %this1, i32 0, i32 1
  %0 = load ptr, ptr %__y.addr, align 8
  %1 = load i32, ptr %0, align 4
  %conv = sext i32 %1 to i64
  store i64 %conv, ptr %second, align 8
  ret void
}

; Function Attrs: mustprogress nounwind uwtable
define linkonce_odr hidden void @_ZNSt4pairIPKcmEC2IS1_RmTnNSt9enable_ifIXaaclsr5_PCCPE22_MoveConstructiblePairIT_T0_EEclsr5_PCCPE30_ImplicitlyMoveConvertiblePairIS6_S7_EEEbE4typeELb1EEEOS6_OS7_(ptr noundef nonnull align 8 dereferenceable(16) %this, ptr noundef nonnull align 8 dereferenceable(8) %__x, ptr noundef nonnull align 8 dereferenceable(8) %__y) unnamed_addr #5 comdat align 2 {
entry:
  %this.addr = alloca ptr, align 8
  %__x.addr = alloca ptr, align 8
  %__y.addr = alloca ptr, align 8
  store ptr %this, ptr %this.addr, align 8
  store ptr %__x, ptr %__x.addr, align 8
  store ptr %__y, ptr %__y.addr, align 8
  %this1 = load ptr, ptr %this.addr, align 8
  %first = getelementptr inbounds %"struct.std::pair.7", ptr %this1, i32 0, i32 0
  %0 = load ptr, ptr %__x.addr, align 8
  %1 = load ptr, ptr %0, align 8
  store ptr %1, ptr %first, align 8
  %second = getelementptr inbounds %"struct.std::pair.7", ptr %this1, i32 0, i32 1
  %2 = load ptr, ptr %__y.addr, align 8
  %3 = load i64, ptr %2, align 8
  store i64 %3, ptr %second, align 8
  ret void
}

; Function Attrs: mustprogress uwtable
define { ptr, i64 } @_ZN6google8protobuf8internal17VarintParseSlow64EPKcj(ptr noundef %p, i32 noundef %res32) #4 {
entry:
  %retval = alloca %"struct.std::pair.7", align 8
  %p.addr = alloca ptr, align 8
  %res32.addr = alloca i32, align 4
  %res = alloca i64, align 8
  %i = alloca i32, align 4
  %byte = alloca i64, align 8
  %ref.tmp = alloca ptr, align 8
  %ref.tmp5 = alloca ptr, align 8
  %ref.tmp6 = alloca i32, align 4
  store ptr %p, ptr %p.addr, align 8
  store i32 %res32, ptr %res32.addr, align 4
  %0 = load i32, ptr %res32.addr, align 4
  %conv = zext i32 %0 to i64
  store i64 %conv, ptr %res, align 8
  store i32 1, ptr %i, align 4
  br label %for.cond

for.cond:                                         ; preds = %for.inc, %entry
  %1 = load i32, ptr %i, align 4
  %cmp = icmp ult i32 %1, 10
  br i1 %cmp, label %for.body, label %for.end

for.body:                                         ; preds = %for.cond
  %2 = load ptr, ptr %p.addr, align 8
  %3 = load i32, ptr %i, align 4
  %idxprom = zext i32 %3 to i64
  %arrayidx = getelementptr inbounds i8, ptr %2, i64 %idxprom
  %4 = load i8, ptr %arrayidx, align 1
  %conv1 = zext i8 %4 to i64
  store i64 %conv1, ptr %byte, align 8
  %5 = load i64, ptr %byte, align 8
  %sub = sub i64 %5, 1
  %6 = load i32, ptr %i, align 4
  %mul = mul i32 7, %6
  %sh_prom = zext i32 %mul to i64
  %shl = shl i64 %sub, %sh_prom
  %7 = load i64, ptr %res, align 8
  %add = add i64 %7, %shl
  store i64 %add, ptr %res, align 8
  %8 = load i64, ptr %byte, align 8
  %cmp2 = icmp ult i64 %8, 128
  br i1 %cmp2, label %if.then, label %if.end

if.then:                                          ; preds = %for.body
  %9 = load ptr, ptr %p.addr, align 8
  %10 = load i32, ptr %i, align 4
  %idx.ext = zext i32 %10 to i64
  %add.ptr = getelementptr inbounds i8, ptr %9, i64 %idx.ext
  %add.ptr4 = getelementptr inbounds i8, ptr %add.ptr, i64 1
  store ptr %add.ptr4, ptr %ref.tmp, align 8
  call void @_ZNSt4pairIPKcmEC2IS1_RmTnNSt9enable_ifIXaaclsr5_PCCPE22_MoveConstructiblePairIT_T0_EEclsr5_PCCPE30_ImplicitlyMoveConvertiblePairIS6_S7_EEEbE4typeELb1EEEOS6_OS7_(ptr noundef nonnull align 8 dereferenceable(16) %retval, ptr noundef nonnull align 8 dereferenceable(8) %ref.tmp, ptr noundef nonnull align 8 dereferenceable(8) %res)
  br label %return

if.end:                                           ; preds = %for.body
  br label %for.inc

for.inc:                                          ; preds = %if.end
  %11 = load i32, ptr %i, align 4
  %inc = add i32 %11, 1
  store i32 %inc, ptr %i, align 4
  br label %for.cond, !llvm.loop !22

for.end:                                          ; preds = %for.cond
  store ptr null, ptr %ref.tmp5, align 8
  store i32 0, ptr %ref.tmp6, align 4
  call void @_ZNSt4pairIPKcmEC2IDniTnNSt9enable_ifIXaaclsr5_PCCPE22_MoveConstructiblePairIT_T0_EEclsr5_PCCPE30_ImplicitlyMoveConvertiblePairIS5_S6_EEEbE4typeELb1EEEOS5_OS6_(ptr noundef nonnull align 8 dereferenceable(16) %retval, ptr noundef nonnull align 8 dereferenceable(8) %ref.tmp5, ptr noundef nonnull align 4 dereferenceable(4) %ref.tmp6)
  br label %return

return:                                           ; preds = %for.end, %if.then
  %12 = load { ptr, i64 }, ptr %retval, align 8
  ret { ptr, i64 } %12
}