; Function Attrs: mustprogress nofree norecurse nosync nounwind willreturn memory(argmem: read) uwtable
define { ptr, i64 } @_ZN6google8protobuf8internal17VarintParseSlow64EPKcj(ptr noundef %p, i32 noundef %res32) local_unnamed_addr #3 {
entry:
  %conv = zext i32 %res32 to i64
  br label %for.body

for.cond:                                         ; preds = %for.body
  %indvars.iv.next = add nuw nsw i64 %indvars.iv, 1
  %exitcond.not = icmp eq i64 %indvars.iv.next, 10
  br i1 %exitcond.not, label %return, label %for.body, !llvm.loop !6

for.body:                                         ; preds = %entry, %for.cond
  %indvars.iv = phi i64 [ 1, %entry ], [ %indvars.iv.next, %for.cond ]
  %res.09 = phi i64 [ %conv, %entry ], [ %add, %for.cond ]
  %arrayidx = getelementptr inbounds nuw i8, ptr %p, i64 %indvars.iv
  %0 = load i8, ptr %arrayidx, align 1
  %conv1 = zext i8 %0 to i64
  %sub = add nsw i64 %conv1, -1
  %1 = mul nuw nsw i64 %indvars.iv, 7
  %shl = shl i64 %sub, %1
  %add = add i64 %shl, %res.09
  %cmp2 = icmp sgt i8 %0, -1
  br i1 %cmp2, label %if.then, label %for.cond

if.then:                                          ; preds = %for.body
  %arrayidx.le = getelementptr inbounds nuw i8, ptr %p, i64 %indvars.iv
  %add.ptr4 = getelementptr inbounds nuw i8, ptr %arrayidx.le, i64 1
  br label %return

return:                                           ; preds = %for.cond, %if.then
  %retval.sroa.0.0 = phi ptr [ %add.ptr4, %if.then ], [ null, %for.cond ]
  %retval.sroa.3.0 = phi i64 [ %add, %if.then ], [ 0, %for.cond ]
  %.fca.0.insert = insertvalue { ptr, i64 } poison, ptr %retval.sroa.0.0, 0
  %.fca.1.insert = insertvalue { ptr, i64 } %.fca.0.insert, i64 %retval.sroa.3.0, 1
  ret { ptr, i64 } %.fca.1.insert
}